(dp0
S'box'
p1
(lp2
sS'enemy'
p3
(lp4
sS'obstacle'
p5
(lp6
(igameobjects
Obstacle
p7
(dp8
S'position'
p9
ccopy_reg
_reconstructor
p10
(cutil
Vector
p11
c__builtin__
object
p12
Ntp13
Rp14
(dp15
S'y'
p16
I589
sS'x'
p17
I0
sbsS'image'
p18
NsS'rect'
p19
cpygame
__rect_constructor
p20
(I0
I589
I800
I11
tp21
Rp22
sS'w'
p23
I800
sS'h'
p24
I11
sbas.